target datalayout = "e-m:e-p270:32:32-p271:32:32-p272:64:64-i64:64-i128:128-f80:128-n8:16:32:64-S128"
target triple = "x86_64-unknown-linux-gnu"

%class.obj_mark = type { %struct.default_t2uint, %class.bit_vector }
%struct.default_t2uint = type { i8 }
%class.bit_vector = type { i32, i32, ptr }
%"struct.spacer::find_zk_const_ns::proc" = type { i32, ptr }

; Function Attrs: mustprogress nounwind uwtable
define linkonce_odr hidden void @_ZN10bit_vectorC2Ev(ptr noundef nonnull align 8 dereferenceable(16) %this) unnamed_addr #5 comdat align 2 {
entry:
  %this.addr = alloca ptr, align 8
  store ptr %this, ptr %this.addr, align 8
  %this1 = load ptr, ptr %this.addr, align 8
  %m_num_bits = getelementptr inbounds %class.bit_vector, ptr %this1, i32 0, i32 0
  store i32 0, ptr %m_num_bits, align 8
  %m_capacity = getelementptr inbounds %class.bit_vector, ptr %this1, i32 0, i32 1
  store i32 0, ptr %m_capacity, align 4
  %m_data = getelementptr inbounds %class.bit_vector, ptr %this1, i32 0, i32 2
  store ptr null, ptr %m_data, align 8
  ret void
}

; Function Attrs: mustprogress uwtable
define linkonce_odr hidden void @_ZN8obj_markI4expr10bit_vector14default_t2uintIS0_EEC2ERKS3_(ptr noundef nonnull align 8 dereferenceable(24) %this, ptr noundef nonnull align 1 dereferenceable(1) %p) unnamed_addr #4 comdat align 2 {
entry:
  %this.addr = alloca ptr, align 8
  %p.addr = alloca ptr, align 8
  store ptr %this, ptr %this.addr, align 8
  store ptr %p, ptr %p.addr, align 8
  %this1 = load ptr, ptr %this.addr, align 8
  %m_marks = getelementptr inbounds %class.obj_mark, ptr %this1, i32 0, i32 1
  call void @_ZN10bit_vectorC2Ev(ptr noundef nonnull align 8 dereferenceable(16) %m_marks)
  ret void
}

; Function Attrs: mustprogress uwtable
define linkonce_odr hidden void @_Z13for_each_exprIN6spacer16find_zk_const_ns4procEEvRT_P4expr(ptr noundef nonnull align 8 dereferenceable(16) %proc, ptr noundef %n) #4 comdat personality ptr @__gxx_personality_v0 {
entry:
  %proc.addr = alloca ptr, align 8
  %n.addr = alloca ptr, align 8
  %visited = alloca %class.obj_mark, align 8
  %ref.tmp = alloca %struct.default_t2uint, align 1
  %exn.slot = alloca ptr, align 8
  %ehselector.slot = alloca i32, align 4
  store ptr %proc, ptr %proc.addr, align 8
  store ptr %n, ptr %n.addr, align 8
  call void @_ZN8obj_markI4expr10bit_vector14default_t2uintIS0_EEC2ERKS3_(ptr noundef nonnull align 8 dereferenceable(24) %visited, ptr noundef nonnull align 1 dereferenceable(1) %ref.tmp)
  %0 = load ptr, ptr %proc.addr, align 8
  %1 = load ptr, ptr %n.addr, align 8
  invoke void @_Z18for_each_expr_coreIN6spacer16find_zk_const_ns4procE8obj_markI4expr10bit_vector14default_t2uintIS4_EELb0ELb0EEvRT_RT0_PS4_(ptr noundef nonnull align 8 dereferenceable(16) %0, ptr noundef nonnull align 8 dereferenceable(24) %visited, ptr noundef %1)
          to label %invoke.cont unwind label %lpad

invoke.cont:                                      ; preds = %entry
  call void @_ZN8obj_markI4expr10bit_vector14default_t2uintIS0_EED2Ev(ptr noundef nonnull align 8 dereferenceable(24) %visited) #3
  ret void

lpad:                                             ; preds = %entry
  %2 = landingpad { ptr, i32 }
          cleanup
  %3 = extractvalue { ptr, i32 } %2, 0
  store ptr %3, ptr %exn.slot, align 8
  %4 = extractvalue { ptr, i32 } %2, 1
  store i32 %4, ptr %ehselector.slot, align 4
  call void @_ZN8obj_markI4expr10bit_vector14default_t2uintIS0_EED2Ev(ptr noundef nonnull align 8 dereferenceable(24) %visited) #3
  br label %eh.resume

eh.resume:                                        ; preds = %lpad
  %exn = load ptr, ptr %exn.slot, align 8
  %sel = load i32, ptr %ehselector.slot, align 4
  %lpad.val = insertvalue { ptr, i32 } poison, ptr %exn, 0
  %lpad.val1 = insertvalue { ptr, i32 } %lpad.val, i32 %sel, 1
  resume { ptr, i32 } %lpad.val1
}

; Function Attrs: mustprogress nounwind uwtable
define linkonce_odr hidden void @_ZN6spacer16find_zk_const_ns4procC2ER10ref_vectorI3app11ast_managerE(ptr noundef nonnull align 8 dereferenceable(16) %this, ptr noundef nonnull align 8 dereferenceable(16) %out) unnamed_addr #5 comdat align 2 {
entry:
  %this.addr = alloca ptr, align 8
  %out.addr = alloca ptr, align 8
  store ptr %this, ptr %this.addr, align 8
  store ptr %out, ptr %out.addr, align 8
  %this1 = load ptr, ptr %this.addr, align 8
  %m_max = getelementptr inbounds %"struct.spacer::find_zk_const_ns::proc", ptr %this1, i32 0, i32 0
  store i32 -1, ptr %m_max, align 8
  %m_out = getelementptr inbounds %"struct.spacer::find_zk_const_ns::proc", ptr %this1, i32 0, i32 1
  %0 = load ptr, ptr %out.addr, align 8
  store ptr %0, ptr %m_out, align 8
  ret void
}

; Function Attrs: mustprogress uwtable
define hidden noundef i32 @_ZN6spacer13find_zk_constEP4exprR10ref_vectorI3app11ast_managerE(ptr noundef %e, ptr noundef nonnull align 8 dereferenceable(16) %res) #4 {
entry:
  %e.addr = alloca ptr, align 8
  %res.addr = alloca ptr, align 8
  %p = alloca %"struct.spacer::find_zk_const_ns::proc", align 8
  store ptr %e, ptr %e.addr, align 8
  store ptr %res, ptr %res.addr, align 8
  %0 = load ptr, ptr %res.addr, align 8
  call void @_ZN6spacer16find_zk_const_ns4procC2ER10ref_vectorI3app11ast_managerE(ptr noundef nonnull align 8 dereferenceable(16) %p, ptr noundef nonnull align 8 dereferenceable(16) %0)
  %1 = load ptr, ptr %e.addr, align 8
  call void @_Z13for_each_exprIN6spacer16find_zk_const_ns4procEEvRT_P4expr(ptr noundef nonnull align 8 dereferenceable(16) %p, ptr noundef %1)
  %m_max = getelementptr inbounds %"struct.spacer::find_zk_const_ns::proc", ptr %p, i32 0, i32 0
  %2 = load i32, ptr %m_max, align 8
  ret i32 %2
}